target datalayout = "e-m:e-p270:32:32-p271:32:32-p272:64:64-i64:64-i128:128-f80:128-n8:16:32:64-S128"
target triple = "x86_64-pc-linux-gnu"

%struct._sasl_cmd = type { ptr, i32 }

; Function Attrs: null_pointer_is_valid sspstrong uwtable
define internal i32 @get_message_header_endianness(ptr noundef %0, i32 noundef %1) #0 {
  %3 = alloca ptr, align 8
  %4 = alloca i32, align 4
  %5 = alloca i8, align 1
  %6 = alloca i32, align 4
  store ptr %0, ptr %3, align 8
  store i32 %1, ptr %4, align 4
  call void @llvm.lifetime.start.p0(i64 1, ptr %5) #5
  call void @llvm.lifetime.start.p0(i64 4, ptr %6) #5
  %7 = load ptr, ptr %3, align 8
  %8 = load i32, ptr %4, align 4
  %9 = add i32 %8, 0
  %10 = call zeroext i8 @tvb_get_uint8(ptr noundef %7, i32 noundef %9)
  store i8 %10, ptr %5, align 1
  %11 = load i8, ptr %5, align 1
  %12 = zext i8 %11 to i32
  switch i32 %12, label %15 [
    i32 108, label %13
    i32 66, label %14
  ]

13:                                               ; preds = %2
  store i32 -2147483648, ptr %6, align 4
  br label %16

14:                                               ; preds = %2
  store i32 0, ptr %6, align 4
  br label %16

15:                                               ; preds = %2
  store i32 195948557, ptr %6, align 4
  br label %16

16:                                               ; preds = %15, %14, %13
  %17 = load i32, ptr %6, align 4
  call void @llvm.lifetime.end.p0(i64 4, ptr %6) #5
  call void @llvm.lifetime.end.p0(i64 1, ptr %5) #5
  ret i32 %17
}

; Function Attrs: null_pointer_is_valid sspstrong uwtable
define internal ptr @find_sasl_command(ptr noundef %0, i32 noundef %1) #0 {
  %3 = alloca ptr, align 8
  %4 = alloca ptr, align 8
  %5 = alloca i32, align 4
  %6 = alloca i32, align 4
  %7 = alloca ptr, align 8
  %8 = alloca i32, align 4
  store ptr %0, ptr %4, align 8
  store i32 %1, ptr %5, align 4
  call void @llvm.lifetime.start.p0(i64 4, ptr %6) #5
  store i32 0, ptr %6, align 4
  br label %9

9:                                                ; preds = %33, %2
  %10 = load i32, ptr %6, align 4
  %11 = icmp slt i32 %10, 7
  br i1 %11, label %12, label %36

12:                                               ; preds = %9
  call void @llvm.lifetime.start.p0(i64 8, ptr %7) #5
  %13 = load i32, ptr %6, align 4
  %14 = sext i32 %13 to i64
  %15 = getelementptr [7 x %struct._sasl_cmd], ptr @sasl_commands, i64 0, i64 %14
  store ptr %15, ptr %7, align 8
  %16 = load ptr, ptr %4, align 8
  %17 = load i32, ptr %5, align 4
  %18 = load ptr, ptr %7, align 8
  %19 = getelementptr inbounds nuw %struct._sasl_cmd, ptr %18, i32 0, i32 0
  %20 = load ptr, ptr %19, align 8
  %21 = load ptr, ptr %7, align 8
  %22 = getelementptr inbounds nuw %struct._sasl_cmd, ptr %21, i32 0, i32 1
  %23 = load i32, ptr %22, align 8
  %24 = zext i32 %23 to i64
  %25 = call i32 @tvb_strneql(ptr noundef %16, i32 noundef %17, ptr noundef %20, i64 noundef %24)
  %26 = icmp eq i32 0, %25
  br i1 %26, label %27, label %29

27:                                               ; preds = %12
  %28 = load ptr, ptr %7, align 8
  store ptr %28, ptr %3, align 8
  store i32 1, ptr %8, align 4
  br label %30

29:                                               ; preds = %12
  store i32 0, ptr %8, align 4
  br label %30

30:                                               ; preds = %29, %27
  call void @llvm.lifetime.end.p0(i64 8, ptr %7) #5
  %31 = load i32, ptr %8, align 4
  switch i32 %31, label %37 [
    i32 0, label %32
  ]

32:                                               ; preds = %30
  br label %33

33:                                               ; preds = %32
  %34 = load i32, ptr %6, align 4
  %35 = add i32 %34, 1
  store i32 %35, ptr %6, align 4
  br label %9, !llvm.loop !16

36:                                               ; preds = %9
  store ptr null, ptr %3, align 8
  store i32 1, ptr %8, align 4
  br label %37

37:                                               ; preds = %36, %30
  call void @llvm.lifetime.end.p0(i64 4, ptr %6) #5
  %38 = load ptr, ptr %3, align 8
  ret ptr %38
}

; Function Attrs: null_pointer_is_valid sspstrong uwtable
define internal zeroext i1 @protocol_is_alljoyn_message(ptr noundef %0, i32 noundef %1, i1 noundef zeroext %2) #0 {
  %4 = alloca i1, align 1
  %5 = alloca ptr, align 8
  %6 = alloca i32, align 4
  %7 = alloca i8, align 1
  %8 = alloca i32, align 4
  %9 = alloca i32, align 4
  store ptr %0, ptr %5, align 8
  store i32 %1, ptr %6, align 4
  %10 = zext i1 %2 to i8
  store i8 %10, ptr %7, align 1
  call void @llvm.lifetime.start.p0(i64 4, ptr %8) #5
  %11 = load ptr, ptr %5, align 8
  %12 = call i32 @tvb_captured_length(ptr noundef %11)
  store i32 %12, ptr %8, align 4
  %13 = load i32, ptr %8, align 4
  %14 = load i32, ptr %6, align 4
  %15 = add i32 %14, 1
  %16 = icmp slt i32 %13, %15
  br i1 %16, label %17, label %18

17:                                               ; preds = %3
  store i1 false, ptr %4, align 1
  store i32 1, ptr %9, align 4
  br label %56

18:                                               ; preds = %3
  %19 = load i8, ptr %7, align 1, !range !6, !noundef !7
  %20 = trunc i8 %19 to i1
  br i1 %20, label %35, label %21

21:                                               ; preds = %18
  %22 = load ptr, ptr %5, align 8
  %23 = load i32, ptr %6, align 4
  %24 = call zeroext i8 @tvb_get_uint8(ptr noundef %22, i32 noundef %23)
  %25 = zext i8 %24 to i32
  %26 = icmp eq i32 %25, 0
  br i1 %26, label %27, label %28

27:                                               ; preds = %21
  store i1 true, ptr %4, align 1
  store i32 1, ptr %9, align 4
  br label %56

28:                                               ; preds = %21
  %29 = load ptr, ptr %5, align 8
  %30 = load i32, ptr %6, align 4
  %31 = call ptr @find_sasl_command(ptr noundef %29, i32 noundef %30)
  %32 = icmp ne ptr %31, null
  br i1 %32, label %33, label %34

33:                                               ; preds = %28
  store i1 true, ptr %4, align 1
  store i32 1, ptr %9, align 4
  br label %56

34:                                               ; preds = %28
  br label %35

35:                                               ; preds = %34, %18
  %36 = load ptr, ptr %5, align 8
  %37 = load i32, ptr %6, align 4
  %38 = call i32 @get_message_header_endianness(ptr noundef %36, i32 noundef %37)
  %39 = icmp eq i32 %38, 195948557
  br i1 %39, label %40, label %41

40:                                               ; preds = %35
  store i1 false, ptr %4, align 1
  store i32 1, ptr %9, align 4
  br label %56

41:                                               ; preds = %35
  %42 = load i32, ptr %8, align 4
  %43 = load i32, ptr %6, align 4
  %44 = add i32 %43, 2
  %45 = icmp slt i32 %42, %44
  br i1 %45, label %54, label %46

46:                                               ; preds = %41
  %47 = load ptr, ptr %5, align 8
  %48 = load i32, ptr %6, align 4
  %49 = add i32 %48, 1
  %50 = call zeroext i8 @tvb_get_uint8(ptr noundef %47, i32 noundef %49)
  %51 = zext i8 %50 to i32
  %52 = call ptr @try_val_to_str(i32 noundef %51, ptr noundef @message_header_encoding_vals)
  %53 = icmp eq ptr %52, null
  br i1 %53, label %54, label %55

54:                                               ; preds = %46, %41
  store i1 false, ptr %4, align 1
  store i32 1, ptr %9, align 4
  br label %56

55:                                               ; preds = %46
  store i1 true, ptr %4, align 1
  store i32 1, ptr %9, align 4
  br label %56

56:                                               ; preds = %55, %54, %40, %33, %27, %17
  call void @llvm.lifetime.end.p0(i64 4, ptr %8) #5
  %57 = load i1, ptr %4, align 1
  ret i1 %57
}