; Function Attrs: null_pointer_is_valid sspstrong uwtable
define internal fastcc zeroext i1 @protocol_is_alljoyn_message(ptr noundef %0, i32 noundef %1, i1 noundef zeroext %2) unnamed_addr #0 {
  %4 = tail call i32 @tvb_captured_length(ptr noundef %0)
  %5 = add i32 %1, 1
  %6 = icmp slt i32 %4, %5
  br i1 %6, label %27, label %7

7:                                                ; preds = %3
  br i1 %2, label %find_sasl_command.exit.thread, label %8

8:                                                ; preds = %7
  %9 = tail call zeroext i8 @tvb_get_uint8(ptr noundef %0, i32 noundef %1)
  %10 = icmp eq i8 %9, 0
  br i1 %10, label %27, label %.preheader

11:                                               ; preds = %.preheader
  %indvars.iv.next.i = add nuw nsw i64 %indvars.iv.i, 1
  %exitcond.not.i = icmp eq i64 %indvars.iv.next.i, 7
  br i1 %exitcond.not.i, label %find_sasl_command.exit.thread, label %.preheader, !llvm.loop !13

.preheader:                                       ; preds = %8, %11
  %indvars.iv.i = phi i64 [ %indvars.iv.next.i, %11 ], [ 0, %8 ]
  %12 = getelementptr [7 x %struct._sasl_cmd], ptr @sasl_commands, i64 0, i64 %indvars.iv.i
  %13 = load ptr, ptr %12, align 16
  %14 = getelementptr inbounds nuw i8, ptr %12, i64 8
  %15 = load i32, ptr %14, align 8
  %16 = zext i32 %15 to i64
  %17 = tail call i32 @tvb_strneql(ptr noundef %0, i32 noundef %1, ptr noundef %13, i64 noundef %16)
  %.not.i = icmp eq i32 %17, 0
  br i1 %.not.i, label %find_sasl_command.exit, label %11

find_sasl_command.exit:                           ; preds = %.preheader
  %.not = icmp eq ptr %12, null
  br i1 %.not, label %find_sasl_command.exit.thread, label %27

find_sasl_command.exit.thread:                    ; preds = %11, %find_sasl_command.exit, %7
  %18 = tail call zeroext i8 @tvb_get_uint8(ptr noundef %0, i32 noundef %1)
  %switch.selectcmp.i = icmp ne i8 %18, 66
  %switch.selectcmp3.i = icmp ne i8 %18, 108
  %19 = and i1 %switch.selectcmp3.i, %switch.selectcmp.i
  %20 = add i32 %1, 2
  %21 = icmp slt i32 %4, %20
  %or.cond = or i1 %21, %19
  br i1 %or.cond, label %27, label %22

22:                                               ; preds = %find_sasl_command.exit.thread
  %23 = tail call zeroext i8 @tvb_get_uint8(ptr noundef %0, i32 noundef %5)
  %24 = zext i8 %23 to i32
  %25 = tail call ptr @try_val_to_str(i32 noundef %24, ptr noundef nonnull @message_header_encoding_vals)
  %26 = icmp ne ptr %25, null
  br label %27

27:                                               ; preds = %22, %find_sasl_command.exit.thread, %find_sasl_command.exit, %8, %3
  %.0 = phi i1 [ false, %3 ], [ true, %8 ], [ true, %find_sasl_command.exit ], [ false, %find_sasl_command.exit.thread ], [ %26, %22 ]
  ret i1 %.0
}